target datalayout = "e-m:e-p270:32:32-p271:32:32-p272:64:64-i64:64-i128:128-f80:128-n8:16:32:64-S128"
target triple = "x86_64-pc-linux-gnu"

%struct.slurmdb_assoc_rec = type { ptr, ptr, ptr, ptr, ptr, ptr, ptr, i32, i32, i32, i32, i32, ptr, ptr, ptr, ptr, ptr, ptr, i32, i32, i16, ptr, ptr, i32, i32, i32, ptr, ptr, ptr, ptr, ptr, ptr, ptr, ptr, i32, i32, ptr, i32, ptr, i32, ptr, i32, i32, ptr, ptr, ptr }

@acct_db_conn = external global ptr, align 8
@accounting_enforce = external global i16, align 2
@.str.141 = private unnamed_addr constant [42 x i8] c"No association for user %u and account %s\00", align 1

; Function Attrs: nounwind uwtable
define internal i32 @_append_acct_to_assoc_list(ptr noundef %0, ptr noundef %1) #0 {
  %3 = alloca ptr, align 8
  %4 = alloca ptr, align 8
  %5 = alloca i32, align 4
  %6 = alloca ptr, align 8
  store ptr %0, ptr %3, align 8
  store ptr %1, ptr %4, align 8
  call void @llvm.lifetime.start.p0(i64 4, ptr %5) #10
  store i32 2045, ptr %5, align 4
  call void @llvm.lifetime.start.p0(i64 8, ptr %6) #10
  store ptr null, ptr %6, align 8
  %7 = load ptr, ptr @acct_db_conn, align 8
  %8 = load ptr, ptr %4, align 8
  %9 = load i16, ptr @accounting_enforce, align 2
  %10 = zext i16 %9 to i32
  %11 = call i32 @assoc_mgr_fill_in_assoc(ptr noundef %7, ptr noundef %8, i32 noundef %10, ptr noundef %6, i1 noundef zeroext true)
  %12 = icmp ne i32 %11, 0
  br i1 %12, label %13, label %44

13:                                               ; preds = %2
  %14 = load i16, ptr @accounting_enforce, align 2
  %15 = zext i16 %14 to i64
  %16 = and i64 %15, 1
  %17 = icmp ne i64 %16, 0
  br i1 %17, label %18, label %26

18:                                               ; preds = %13
  %19 = load ptr, ptr %4, align 8
  %20 = getelementptr inbounds nuw %struct.slurmdb_assoc_rec, ptr %19, i32 0, i32 42
  %21 = load i32, ptr %20, align 4
  %22 = load ptr, ptr %4, align 8
  %23 = getelementptr inbounds nuw %struct.slurmdb_assoc_rec, ptr %22, i32 0, i32 1
  %24 = load ptr, ptr %23, align 8
  %25 = call i32 (ptr, ...) @error(ptr noundef @.str.141, i32 noundef %21, ptr noundef %24)
  br label %43

26:                                               ; preds = %13
  br label %27

27:                                               ; preds = %26
  br label %28

28:                                               ; preds = %27
  %29 = call i32 @get_log_level()
  %30 = icmp sge i32 %29, 4
  br i1 %30, label %31, label %38

31:                                               ; preds = %28
  %32 = load ptr, ptr %4, align 8
  %33 = getelementptr inbounds nuw %struct.slurmdb_assoc_rec, ptr %32, i32 0, i32 42
  %34 = load i32, ptr %33, align 4
  %35 = load ptr, ptr %4, align 8
  %36 = getelementptr inbounds nuw %struct.slurmdb_assoc_rec, ptr %35, i32 0, i32 1
  %37 = load ptr, ptr %36, align 8
  call void (i32, ptr, ...) @log_var(i32 noundef 4, ptr noundef @.str.141, i32 noundef %34, ptr noundef %37)
  br label %38

38:                                               ; preds = %31, %28
  br label %39

39:                                               ; preds = %38
  br label %40

40:                                               ; preds = %39
  br label %41

41:                                               ; preds = %40
  br label %42

42:                                               ; preds = %41
  store i32 0, ptr %5, align 4
  br label %43

43:                                               ; preds = %42, %18
  br label %44

44:                                               ; preds = %43, %2
  %45 = load ptr, ptr %6, align 8
  %46 = icmp ne ptr %45, null
  br i1 %46, label %47, label %50

47:                                               ; preds = %44
  %48 = load ptr, ptr %3, align 8
  %49 = load ptr, ptr %6, align 8
  call void @list_append(ptr noundef %48, ptr noundef %49)
  store i32 0, ptr %5, align 4
  br label %50

50:                                               ; preds = %47, %44
  %51 = load i32, ptr %5, align 4
  call void @llvm.lifetime.end.p0(i64 8, ptr %6) #10
  call void @llvm.lifetime.end.p0(i64 4, ptr %5) #10
  ret i32 %51
}