; Function Attrs: nounwind uwtable
define internal fastcc range(i32 0, 2046) i32 @_append_acct_to_assoc_list(ptr noundef %0, ptr noundef nonnull %1) unnamed_addr #0 {
  %3 = alloca ptr, align 8
  call void @llvm.lifetime.start.p0(i64 8, ptr nonnull %3) #19
  store ptr null, ptr %3, align 8
  %4 = load ptr, ptr @acct_db_conn, align 8
  %5 = load i16, ptr @accounting_enforce, align 2
  %6 = zext i16 %5 to i32
  %7 = call i32 @assoc_mgr_fill_in_assoc(ptr noundef %4, ptr noundef nonnull %1, i32 noundef %6, ptr noundef nonnull %3, i1 noundef zeroext true) #19
  %.not = icmp eq i32 %7, 0
  br i1 %.not, label %25, label %8

8:                                                ; preds = %2
  %9 = load i16, ptr @accounting_enforce, align 2
  %10 = and i16 %9, 1
  %.not7 = icmp eq i16 %10, 0
  br i1 %.not7, label %17, label %11

11:                                               ; preds = %8
  %12 = getelementptr inbounds nuw i8, ptr %1, i64 292
  %13 = load i32, ptr %12, align 4
  %14 = getelementptr inbounds nuw i8, ptr %1, i64 8
  %15 = load ptr, ptr %14, align 8
  %16 = call i32 (ptr, ...) @error(ptr noundef nonnull @.str.141, i32 noundef %13, ptr noundef %15) #19
  br label %25

17:                                               ; preds = %8
  %18 = call i32 @get_log_level() #19
  %19 = icmp sgt i32 %18, 3
  br i1 %19, label %20, label %25

20:                                               ; preds = %17
  %21 = getelementptr inbounds nuw i8, ptr %1, i64 292
  %22 = load i32, ptr %21, align 4
  %23 = getelementptr inbounds nuw i8, ptr %1, i64 8
  %24 = load ptr, ptr %23, align 8
  call void (i32, ptr, ...) @log_var(i32 noundef 4, ptr noundef nonnull @.str.141, i32 noundef %22, ptr noundef %24) #19
  br label %25

25:                                               ; preds = %17, %20, %11, %2
  %.0 = phi i32 [ 2045, %11 ], [ 2045, %2 ], [ 0, %20 ], [ 0, %17 ]
  %26 = load ptr, ptr %3, align 8
  %.not8 = icmp eq ptr %26, null
  br i1 %.not8, label %28, label %27

27:                                               ; preds = %25
  call void @list_append(ptr noundef %0, ptr noundef nonnull %26) #19
  br label %28

28:                                               ; preds = %27, %25
  %.1 = phi i32 [ 0, %27 ], [ %.0, %25 ]
  call void @llvm.lifetime.end.p0(i64 8, ptr nonnull %3) #19
  ret i32 %.1
}